target datalayout = "e-m:e-p270:32:32-p271:32:32-p272:64:64-i64:64-i128:128-f80:128-n8:16:32:64-S128"
target triple = "x86_64-pc-linux-gnu"

%struct.ARKodeMemRec = type { ptr, double, ptr, i32, i32, double, double, ptr, i32, double, ptr, i32, i32, ptr, ptr, i32, ptr, ptr, i32, ptr, ptr, ptr, ptr, ptr, ptr, ptr, ptr, ptr, ptr, ptr, ptr, ptr, ptr, ptr, i32, ptr, ptr, i32, ptr, i32, ptr, ptr, ptr, ptr, ptr, ptr, ptr, ptr, ptr, ptr, ptr, ptr, ptr, ptr, ptr, ptr, ptr, ptr, ptr, ptr, ptr, ptr, ptr, ptr, ptr, ptr, i32, ptr, ptr, ptr, ptr, ptr, ptr, ptr, i32, ptr, ptr, ptr, i32, ptr, ptr, ptr, ptr, ptr, ptr, ptr, i32, i32, i32, i32, double, double, double, double, double, double, double, double, double, double, i32, ptr, i64, i32, i32, i32, i32, i64, i64, i32, i64, i64, i64, i64, i64, i64, i64, double, double, double, double, double, i32, double, double, i32, i32, i32, i32, i32, i32, i32, i32, ptr, i32, ptr, ptr, ptr, ptr, i32, i32, i32 }

; Function Attrs: nounwind uwtable
define i32 @arkCheckConstraints(ptr noundef %0, ptr noundef %1, ptr noundef %2) #0 {
  %4 = alloca i32, align 4
  %5 = alloca ptr, align 8
  %6 = alloca ptr, align 8
  %7 = alloca ptr, align 8
  %8 = alloca i32, align 4
  %9 = alloca ptr, align 8
  %10 = alloca ptr, align 8
  %11 = alloca i32, align 4
  store ptr %0, ptr %5, align 8, !tbaa !11
  store ptr %1, ptr %6, align 8, !tbaa !138
  store ptr %2, ptr %7, align 8, !tbaa !138
  call void @llvm.lifetime.start.p0(i64 4, ptr %8) #10
  call void @llvm.lifetime.start.p0(i64 8, ptr %9) #10
  %12 = load ptr, ptr %5, align 8, !tbaa !11
  %13 = getelementptr inbounds nuw %struct.ARKodeMemRec, ptr %12, i32 0, i32 82
  %14 = load ptr, ptr %13, align 8, !tbaa !142
  store ptr %14, ptr %9, align 8, !tbaa !7
  call void @llvm.lifetime.start.p0(i64 8, ptr %10) #10
  %15 = load ptr, ptr %5, align 8, !tbaa !11
  %16 = getelementptr inbounds nuw %struct.ARKodeMemRec, ptr %15, i32 0, i32 81
  %17 = load ptr, ptr %16, align 8, !tbaa !143
  store ptr %17, ptr %10, align 8, !tbaa !7
  %18 = load ptr, ptr %5, align 8, !tbaa !11
  %19 = getelementptr inbounds nuw %struct.ARKodeMemRec, ptr %18, i32 0, i32 84
  %20 = load ptr, ptr %19, align 8, !tbaa !128
  %21 = load ptr, ptr %5, align 8, !tbaa !11
  %22 = getelementptr inbounds nuw %struct.ARKodeMemRec, ptr %21, i32 0, i32 75
  %23 = load ptr, ptr %22, align 8, !tbaa !106
  %24 = load ptr, ptr %9, align 8, !tbaa !7
  %25 = call i32 @N_VConstrMask(ptr noundef %20, ptr noundef %23, ptr noundef %24)
  store i32 %25, ptr %8, align 4, !tbaa !38
  %26 = load i32, ptr %8, align 4, !tbaa !38
  %27 = icmp ne i32 %26, 0
  br i1 %27, label %28, label %29

28:                                               ; preds = %3
  store i32 0, ptr %4, align 4
  store i32 1, ptr %11, align 4
  br label %94

29:                                               ; preds = %3
  %30 = load ptr, ptr %5, align 8, !tbaa !11
  %31 = getelementptr inbounds nuw %struct.ARKodeMemRec, ptr %30, i32 0, i32 112
  %32 = load i64, ptr %31, align 8, !tbaa !65
  %33 = add nsw i64 %32, 1
  store i64 %33, ptr %31, align 8, !tbaa !65
  %34 = load ptr, ptr %6, align 8, !tbaa !138
  %35 = load i32, ptr %34, align 4, !tbaa !38
  %36 = add nsw i32 %35, 1
  store i32 %36, ptr %34, align 4, !tbaa !38
  %37 = load ptr, ptr %6, align 8, !tbaa !138
  %38 = load i32, ptr %37, align 4, !tbaa !38
  %39 = load ptr, ptr %5, align 8, !tbaa !11
  %40 = getelementptr inbounds nuw %struct.ARKodeMemRec, ptr %39, i32 0, i32 104
  %41 = load i32, ptr %40, align 4, !tbaa !144
  %42 = icmp eq i32 %38, %41
  br i1 %42, label %43, label %44

43:                                               ; preds = %29
  store i32 -19, ptr %4, align 4
  store i32 1, ptr %11, align 4
  br label %94

44:                                               ; preds = %29
  %45 = load ptr, ptr %5, align 8, !tbaa !11
  %46 = getelementptr inbounds nuw %struct.ARKodeMemRec, ptr %45, i32 0, i32 100
  %47 = load i32, ptr %46, align 8, !tbaa !114
  %48 = icmp ne i32 %47, 0
  br i1 %48, label %49, label %50

49:                                               ; preds = %44
  store i32 -19, ptr %4, align 4
  store i32 1, ptr %11, align 4
  br label %94

50:                                               ; preds = %44
  %51 = load ptr, ptr %5, align 8, !tbaa !11
  %52 = getelementptr inbounds nuw %struct.ARKodeMemRec, ptr %51, i32 0, i32 92
  %53 = load double, ptr %52, align 8, !tbaa !29
  %54 = call double @llvm.fabs.f64(double %53)
  %55 = load ptr, ptr %5, align 8, !tbaa !11
  %56 = getelementptr inbounds nuw %struct.ARKodeMemRec, ptr %55, i32 0, i32 93
  %57 = load double, ptr %56, align 8, !tbaa !121
  %58 = fmul double %57, 0x3FF000010C6F7A0B
  %59 = fcmp ole double %54, %58
  br i1 %59, label %60, label %61

60:                                               ; preds = %50
  store i32 -19, ptr %4, align 4
  store i32 1, ptr %11, align 4
  br label %94

61:                                               ; preds = %50
  %62 = load ptr, ptr %5, align 8, !tbaa !11
  %63 = getelementptr inbounds nuw %struct.ARKodeMemRec, ptr %62, i32 0, i32 76
  %64 = load ptr, ptr %63, align 8, !tbaa !40
  %65 = load ptr, ptr %5, align 8, !tbaa !11
  %66 = getelementptr inbounds nuw %struct.ARKodeMemRec, ptr %65, i32 0, i32 75
  %67 = load ptr, ptr %66, align 8, !tbaa !106
  %68 = load ptr, ptr %10, align 8, !tbaa !7
  call void @N_VLinearSum(double noundef 1.000000e+00, ptr noundef %64, double noundef -1.000000e+00, ptr noundef %67, ptr noundef %68)
  %69 = load ptr, ptr %9, align 8, !tbaa !7
  %70 = load ptr, ptr %10, align 8, !tbaa !7
  %71 = load ptr, ptr %10, align 8, !tbaa !7
  call void @N_VProd(ptr noundef %69, ptr noundef %70, ptr noundef %71)
  %72 = load ptr, ptr %5, align 8, !tbaa !11
  %73 = getelementptr inbounds nuw %struct.ARKodeMemRec, ptr %72, i32 0, i32 76
  %74 = load ptr, ptr %73, align 8, !tbaa !40
  %75 = load ptr, ptr %10, align 8, !tbaa !7
  %76 = call double @N_VMinQuotient(ptr noundef %74, ptr noundef %75)
  %77 = fmul double 9.000000e-01, %76
  %78 = load ptr, ptr %5, align 8, !tbaa !11
  %79 = getelementptr inbounds nuw %struct.ARKodeMemRec, ptr %78, i32 0, i32 97
  store double %77, ptr %79, align 8, !tbaa !24
  %80 = load ptr, ptr %5, align 8, !tbaa !11
  %81 = getelementptr inbounds nuw %struct.ARKodeMemRec, ptr %80, i32 0, i32 97
  %82 = load double, ptr %81, align 8, !tbaa !24
  %83 = fcmp ogt double %82, 1.000000e-01
  br i1 %83, label %84, label %88

84:                                               ; preds = %61
  %85 = load ptr, ptr %5, align 8, !tbaa !11
  %86 = getelementptr inbounds nuw %struct.ARKodeMemRec, ptr %85, i32 0, i32 97
  %87 = load double, ptr %86, align 8, !tbaa !24
  br label %89

88:                                               ; preds = %61
  br label %89

89:                                               ; preds = %88, %84
  %90 = phi double [ %87, %84 ], [ 1.000000e-01, %88 ]
  %91 = load ptr, ptr %5, align 8, !tbaa !11
  %92 = getelementptr inbounds nuw %struct.ARKodeMemRec, ptr %91, i32 0, i32 97
  store double %90, ptr %92, align 8, !tbaa !24
  %93 = load ptr, ptr %7, align 8, !tbaa !138
  store i32 7, ptr %93, align 4, !tbaa !38
  store i32 10, ptr %4, align 4
  store i32 1, ptr %11, align 4
  br label %94

94:                                               ; preds = %89, %60, %49, %43, %28
  call void @llvm.lifetime.end.p0(i64 8, ptr %10) #10
  call void @llvm.lifetime.end.p0(i64 8, ptr %9) #10
  call void @llvm.lifetime.end.p0(i64 4, ptr %8) #10
  %95 = load i32, ptr %4, align 4
  ret i32 %95
}