; Function Attrs: nounwind uwtable
define range(i32 -19, 11) i32 @arkCheckConstraints(ptr noundef captures(none) %0, ptr noundef captures(none) %1, ptr noundef writeonly captures(none) %2) local_unnamed_addr #0 {
  %4 = getelementptr inbounds nuw i8, ptr %0, i64 640
  %5 = load ptr, ptr %4, align 8, !tbaa !145
  %6 = getelementptr inbounds nuw i8, ptr %0, i64 632
  %7 = load ptr, ptr %6, align 8, !tbaa !146
  %8 = getelementptr inbounds nuw i8, ptr %0, i64 656
  %9 = load ptr, ptr %8, align 8, !tbaa !137
  %10 = getelementptr inbounds nuw i8, ptr %0, i64 584
  %11 = load ptr, ptr %10, align 8, !tbaa !106
  %12 = tail call i32 @N_VConstrMask(ptr noundef %9, ptr noundef %11, ptr noundef %5) #16
  %.not = icmp eq i32 %12, 0
  br i1 %.not, label %13, label %43

13:                                               ; preds = %3
  %14 = getelementptr inbounds nuw i8, ptr %0, i64 848
  %15 = load i64, ptr %14, align 8, !tbaa !147
  %16 = add nsw i64 %15, 1
  store i64 %16, ptr %14, align 8, !tbaa !147
  %17 = load i32, ptr %1, align 4, !tbaa !115
  %18 = add nsw i32 %17, 1
  store i32 %18, ptr %1, align 4, !tbaa !115
  %19 = getelementptr inbounds nuw i8, ptr %0, i64 796
  %20 = load i32, ptr %19, align 4, !tbaa !148
  %21 = icmp eq i32 %18, %20
  br i1 %21, label %43, label %22

22:                                               ; preds = %13
  %23 = getelementptr inbounds nuw i8, ptr %0, i64 768
  %24 = load i32, ptr %23, align 8, !tbaa !117
  %.not27 = icmp eq i32 %24, 0
  br i1 %.not27, label %25, label %43

25:                                               ; preds = %22
  %26 = getelementptr inbounds nuw i8, ptr %0, i64 704
  %27 = load double, ptr %26, align 8, !tbaa !24
  %28 = tail call double @llvm.fabs.f64(double %27)
  %29 = getelementptr inbounds nuw i8, ptr %0, i64 712
  %30 = load double, ptr %29, align 8, !tbaa !126
  %31 = fmul double %30, 0x3FF000010C6F7A0B
  %32 = fcmp ugt double %28, %31
  br i1 %32, label %33, label %43

33:                                               ; preds = %25
  %34 = getelementptr inbounds nuw i8, ptr %0, i64 592
  %35 = load ptr, ptr %34, align 8, !tbaa !34
  %36 = load ptr, ptr %10, align 8, !tbaa !106
  tail call void @N_VLinearSum(double noundef 1.000000e+00, ptr noundef %35, double noundef -1.000000e+00, ptr noundef %36, ptr noundef %7) #16
  tail call void @N_VProd(ptr noundef %5, ptr noundef %7, ptr noundef %7) #16
  %37 = load ptr, ptr %34, align 8, !tbaa !34
  %38 = tail call double @N_VMinQuotient(ptr noundef %37, ptr noundef %7) #16
  %39 = fmul double %38, 9.000000e-01
  %40 = getelementptr inbounds nuw i8, ptr %0, i64 744
  %41 = fcmp ogt double %39, 1.000000e-01
  %42 = select i1 %41, double %39, double 1.000000e-01
  store double %42, ptr %40, align 8, !tbaa !19
  store i32 7, ptr %2, align 4, !tbaa !115
  br label %43

43:                                               ; preds = %25, %22, %13, %3, %33
  %.0 = phi i32 [ 10, %33 ], [ 0, %3 ], [ -19, %13 ], [ -19, %22 ], [ -19, %25 ]
  ret i32 %.0
}